target datalayout = "e-m:e-p270:32:32-p271:32:32-p272:64:64-i64:64-i128:128-f80:128-n8:16:32:64-S128"
target triple = "x86_64-pc-linux-gnu"

%struct._ir_ctx = type { ptr, i32, i32, i32, i32, i32, i32, i32, i32, i32, i32, %struct._ir_insn, ptr, ptr, ptr, i32, i32, i32, ptr, ptr, ptr, ptr, ptr, ptr, i32, i32, i64, i32, i32, i32, i64, i32, i32, i32, i32, ptr, ptr, ptr, ptr, ptr, ptr, %union.anon.13, ptr, i32, i32, i32, i64, i32, i32, i32, ptr, ptr, ptr, ptr, %struct._ir_strtab, [61 x i32], [14 x i32] }
%struct._ir_insn = type { %struct.anon, %union.anon.5 }
%struct.anon = type { %union.anon, %union.anon.4 }
%union.anon = type { i32 }
%union.anon.4 = type { i32 }
%union.anon.5 = type { %union._ir_val }
%union._ir_val = type { double }
%union.anon.13 = type { ptr }
%struct._ir_strtab = type { ptr, i32, i32, i32, i32, ptr, i32, i32 }

; Function Attrs: nounwind uwtable
define hidden void @ir_reset_cfg(ptr noundef %0) #0 {
  %2 = alloca ptr, align 8
  store ptr %0, ptr %2, align 8, !tbaa !4
  %3 = load ptr, ptr %2, align 8, !tbaa !4
  %4 = getelementptr inbounds nuw %struct._ir_ctx, ptr %3, i32 0, i32 16
  store i32 0, ptr %4, align 4, !tbaa !9
  %5 = load ptr, ptr %2, align 8, !tbaa !4
  %6 = getelementptr inbounds nuw %struct._ir_ctx, ptr %5, i32 0, i32 17
  store i32 0, ptr %6, align 8, !tbaa !28
  %7 = load ptr, ptr %2, align 8, !tbaa !4
  %8 = getelementptr inbounds nuw %struct._ir_ctx, ptr %7, i32 0, i32 18
  %9 = load ptr, ptr %8, align 8, !tbaa !29
  %10 = icmp ne ptr %9, null
  br i1 %10, label %11, label %39

11:                                               ; preds = %1
  %12 = load ptr, ptr %2, align 8, !tbaa !4
  %13 = getelementptr inbounds nuw %struct._ir_ctx, ptr %12, i32 0, i32 18
  %14 = load ptr, ptr %13, align 8, !tbaa !29
  call void @_efree(ptr noundef %14)
  %15 = load ptr, ptr %2, align 8, !tbaa !4
  %16 = getelementptr inbounds nuw %struct._ir_ctx, ptr %15, i32 0, i32 18
  store ptr null, ptr %16, align 8, !tbaa !29
  %17 = load ptr, ptr %2, align 8, !tbaa !4
  %18 = getelementptr inbounds nuw %struct._ir_ctx, ptr %17, i32 0, i32 19
  %19 = load ptr, ptr %18, align 8, !tbaa !30
  %20 = icmp ne ptr %19, null
  br i1 %20, label %21, label %27

21:                                               ; preds = %11
  %22 = load ptr, ptr %2, align 8, !tbaa !4
  %23 = getelementptr inbounds nuw %struct._ir_ctx, ptr %22, i32 0, i32 19
  %24 = load ptr, ptr %23, align 8, !tbaa !30
  call void @_efree(ptr noundef %24)
  %25 = load ptr, ptr %2, align 8, !tbaa !4
  %26 = getelementptr inbounds nuw %struct._ir_ctx, ptr %25, i32 0, i32 19
  store ptr null, ptr %26, align 8, !tbaa !30
  br label %27

27:                                               ; preds = %21, %11
  %28 = load ptr, ptr %2, align 8, !tbaa !4
  %29 = getelementptr inbounds nuw %struct._ir_ctx, ptr %28, i32 0, i32 20
  %30 = load ptr, ptr %29, align 8, !tbaa !31
  %31 = icmp ne ptr %30, null
  br i1 %31, label %32, label %38

32:                                               ; preds = %27
  %33 = load ptr, ptr %2, align 8, !tbaa !4
  %34 = getelementptr inbounds nuw %struct._ir_ctx, ptr %33, i32 0, i32 20
  %35 = load ptr, ptr %34, align 8, !tbaa !31
  call void @_efree(ptr noundef %35)
  %36 = load ptr, ptr %2, align 8, !tbaa !4
  %37 = getelementptr inbounds nuw %struct._ir_ctx, ptr %36, i32 0, i32 20
  store ptr null, ptr %37, align 8, !tbaa !31
  br label %38

38:                                               ; preds = %32, %27
  br label %39

39:                                               ; preds = %38, %1
  ret void
}