; Function Attrs: nounwind uwtable
define hidden void @ir_reset_cfg(ptr noundef captures(none) initializes((92, 100)) %0) local_unnamed_addr #0 {
  %2 = getelementptr inbounds nuw i8, ptr %0, i64 92
  store i32 0, ptr %2, align 4, !tbaa !4
  %3 = getelementptr inbounds nuw i8, ptr %0, i64 96
  store i32 0, ptr %3, align 8, !tbaa !26
  %4 = getelementptr inbounds nuw i8, ptr %0, i64 104
  %5 = load ptr, ptr %4, align 8, !tbaa !27
  %.not = icmp eq ptr %5, null
  br i1 %.not, label %14, label %6

6:                                                ; preds = %1
  tail call void @_efree(ptr noundef nonnull %5) #15
  store ptr null, ptr %4, align 8, !tbaa !27
  %7 = getelementptr inbounds nuw i8, ptr %0, i64 112
  %8 = load ptr, ptr %7, align 8, !tbaa !28
  %.not13 = icmp eq ptr %8, null
  br i1 %.not13, label %10, label %9

9:                                                ; preds = %6
  tail call void @_efree(ptr noundef nonnull %8) #15
  store ptr null, ptr %7, align 8, !tbaa !28
  br label %10

10:                                               ; preds = %9, %6
  %11 = getelementptr inbounds nuw i8, ptr %0, i64 120
  %12 = load ptr, ptr %11, align 8, !tbaa !29
  %.not14 = icmp eq ptr %12, null
  br i1 %.not14, label %14, label %13

13:                                               ; preds = %10
  tail call void @_efree(ptr noundef nonnull %12) #15
  store ptr null, ptr %11, align 8, !tbaa !29
  br label %14

14:                                               ; preds = %10, %13, %1
  ret void
}